(dp0
S'10'
p1
S'Functional group addition (FGA)'
p2
sS'1'
p3
S'Heteroatom alkylation and arylation'
p4
sS'3'
p5
S'C-C bond formation'
p6
sS'2'
p7
S'Acylation and related processes'
p8
sS'5'
p9
S'Protections'
p10
sS'4'
p11
S'Heterocycle formation'
p12
sS'7'
p13
S'Reductions'
p14
sS'6'
p15
S'Deprotections'
p16
sS'9'
p17
S'Functional group interconversion (FGI)'
p18
sS'8'
p19
S'Oxidations'
p20
s.